; Function Attrs: nounwind uwtable
define internal void @task_fssync(ptr noundef readonly captures(none) %0, ptr readnone captures(none) %1) #1 {
  %3 = alloca i64, align 8
  %4 = getelementptr inbounds nuw i8, ptr %0, i64 16
  %5 = load ptr, ptr %4, align 16
  %6 = getelementptr inbounds nuw i8, ptr %5, i64 929
  %7 = load i8, ptr %6, align 1
  %.not13 = icmp eq i8 %7, 0
  br i1 %.not13, label %._crit_edge, label %.preheader.lr.ph

.preheader.lr.ph:                                 ; preds = %2
  %8 = getelementptr inbounds nuw i8, ptr %5, i64 936
  br label %.preheader

.preheader:                                       ; preds = %.preheader.lr.ph, %22
  %indvars.iv15 = phi i64 [ 0, %.preheader.lr.ph ], [ %indvars.iv.next16, %22 ]
  br label %9

9:                                                ; preds = %.preheader, %21
  %indvars.iv = phi i64 [ 0, %.preheader ], [ %indvars.iv.next, %21 ]
  call void @llvm.lifetime.start.p0(i64 8, ptr nonnull %3)
  call void asm sideeffect "\09pushfq\0A\09popq $0\0A", "=*rm,~{memory},~{dirflag},~{fpsr},~{flags}"(ptr nonnull elementtype(i64) %3) #10, !srcloc !9
  %10 = load i64, ptr %3, align 8
  call void @llvm.lifetime.end.p0(i64 8, ptr nonnull %3)
  call void asm sideeffect "cli", "~{memory},~{dirflag},~{fpsr},~{flags}"() #10, !srcloc !10
  %11 = load ptr, ptr %8, align 8
  %12 = getelementptr inbounds nuw ptr, ptr %11, i64 %indvars.iv15
  %13 = load ptr, ptr %12, align 8
  %14 = and i64 %10, 512
  %.not.i.i = icmp eq i64 %14, 0
  br i1 %.not.i.i, label %files_fget_by_index.exit, label %15

15:                                               ; preds = %9
  call void asm sideeffect "sti", "~{memory},~{dirflag},~{fpsr},~{flags}"() #10, !srcloc !11
  br label %files_fget_by_index.exit

files_fget_by_index.exit:                         ; preds = %9, %15
  %16 = getelementptr inbounds nuw %struct.file, ptr %13, i64 %indvars.iv
  %17 = getelementptr inbounds nuw i8, ptr %16, i64 8
  %18 = load ptr, ptr %17, align 8
  %.not = icmp eq ptr %18, null
  br i1 %.not, label %21, label %19

19:                                               ; preds = %files_fget_by_index.exit
  %20 = call i32 @file_fsync(ptr noundef nonnull %16) #10
  br label %21

21:                                               ; preds = %files_fget_by_index.exit, %19
  %indvars.iv.next = add nuw nsw i64 %indvars.iv, 1
  %exitcond.not = icmp eq i64 %indvars.iv.next, 8
  br i1 %exitcond.not, label %22, label %9, !llvm.loop !19

22:                                               ; preds = %21
  %indvars.iv.next16 = add nuw nsw i64 %indvars.iv15, 1
  %23 = load i8, ptr %6, align 1
  %24 = zext i8 %23 to i64
  %25 = icmp samesign ult i64 %indvars.iv.next16, %24
  br i1 %25, label %.preheader, label %._crit_edge, !llvm.loop !20

._crit_edge:                                      ; preds = %22, %2
  ret void
}